#include <math.h>
#include <stdio.h>
#include <stdlib.h>
#include <string.h>
#include <iostream>
using namespace std;

int main()                                          //?????
{
	int k,n,b[20001],c[20001],i=0,j=1,l,m;          //???????i,j,l??????n????????k????????
	cin>>n;                                         //b???????????????????c????????
	for(l=0;l<20001;l++)                            //???b????0
	{b[l]=0;}
	for(m=0;m<20001;m++)
	{c[m]=0;}
	while(j<=n)                                     //?????????
	{cin>>k;
	if(b[k]==0)                                     //??k?????
	c[i]=k;                                         //??????c[i]
	b[k]++;                                         //??K????
	i++;
	j++;}
	cout<<c[0];
	for(i=1;i<n;i++)                               //????????????
	   {
		   if(c[i]!=0)                             
		   {cout<<" "<<c[i];} 
		                                           //???????c???????
	   }
	
	
    return 0;
}                                                  //?????